; Function Attrs: nounwind uwtable
define void @ff_mjpeg_encode_picture_trailer(ptr noundef captures(none) %0, i32 noundef %1) local_unnamed_addr #0 {
  %3 = load i32, ptr %0, align 8, !tbaa !33
  %4 = getelementptr inbounds nuw i8, ptr %0, i64 4
  %5 = load i32, ptr %4, align 4, !tbaa !35
  %6 = icmp sgt i32 %5, 8
  br i1 %6, label %7, label %10

7:                                                ; preds = %2
  %8 = shl i32 %3, 8
  %9 = or disjoint i32 %8, 255
  br label %put_bits.exit.i

10:                                               ; preds = %2
  %11 = getelementptr inbounds nuw i8, ptr %0, i64 24
  %12 = load ptr, ptr %11, align 8, !tbaa !36
  %13 = getelementptr inbounds nuw i8, ptr %0, i64 16
  %14 = load ptr, ptr %13, align 8, !tbaa !37
  %15 = ptrtoint ptr %12 to i64
  %16 = ptrtoint ptr %14 to i64
  %17 = sub i64 %15, %16
  %18 = icmp ugt i64 %17, 3
  br i1 %18, label %19, label %27

19:                                               ; preds = %10
  %20 = shl i32 %3, %5
  %21 = sub nsw i32 8, %5
  %22 = lshr i32 255, %21
  %23 = or i32 %22, %20
  %24 = tail call i32 @llvm.bswap.i32(i32 %23)
  store i32 %24, ptr %14, align 1, !tbaa !38
  %25 = load ptr, ptr %13, align 8, !tbaa !37
  %26 = getelementptr inbounds nuw i8, ptr %25, i64 4
  store ptr %26, ptr %13, align 8, !tbaa !37
  br label %put_bits.exit.i

27:                                               ; preds = %10
  tail call void (ptr, i32, ptr, ...) @av_log(ptr noundef null, i32 noundef 16, ptr noundef nonnull @.str.10) #8
  br label %put_bits.exit.i

put_bits.exit.i:                                  ; preds = %27, %19, %7
  %.sink.i = phi i32 [ -8, %7 ], [ 24, %27 ], [ 24, %19 ]
  %.026.i.i.i = phi i32 [ %9, %7 ], [ 255, %27 ], [ 255, %19 ]
  %28 = add nsw i32 %.sink.i, %5
  store i32 %.026.i.i.i, ptr %0, align 8, !tbaa !33
  store i32 %28, ptr %4, align 4, !tbaa !35
  %29 = icmp sgt i32 %28, 8
  br i1 %29, label %30, label %33

30:                                               ; preds = %put_bits.exit.i
  %31 = shl i32 %.026.i.i.i, 8
  %32 = or disjoint i32 %31, 217
  br label %put_marker.exit

33:                                               ; preds = %put_bits.exit.i
  %34 = getelementptr inbounds nuw i8, ptr %0, i64 24
  %35 = load ptr, ptr %34, align 8, !tbaa !36
  %36 = getelementptr inbounds nuw i8, ptr %0, i64 16
  %37 = load ptr, ptr %36, align 8, !tbaa !37
  %38 = ptrtoint ptr %35 to i64
  %39 = ptrtoint ptr %37 to i64
  %40 = sub i64 %38, %39
  %41 = icmp ugt i64 %40, 3
  br i1 %41, label %42, label %50

42:                                               ; preds = %33
  %43 = shl i32 %.026.i.i.i, %28
  %44 = sub nsw i32 8, %28
  %45 = lshr i32 217, %44
  %46 = or i32 %45, %43
  %47 = tail call i32 @llvm.bswap.i32(i32 %46)
  store i32 %47, ptr %37, align 1, !tbaa !38
  %48 = load ptr, ptr %36, align 8, !tbaa !37
  %49 = getelementptr inbounds nuw i8, ptr %48, i64 4
  store ptr %49, ptr %36, align 8, !tbaa !37
  br label %put_marker.exit

50:                                               ; preds = %33
  tail call void (ptr, i32, ptr, ...) @av_log(ptr noundef null, i32 noundef 16, ptr noundef nonnull @.str.10) #8
  br label %put_marker.exit

put_marker.exit:                                  ; preds = %30, %42, %50
  %.sink6.i = phi i32 [ -8, %30 ], [ 24, %50 ], [ 24, %42 ]
  %.026.i.i3.i = phi i32 [ %32, %30 ], [ 217, %50 ], [ 217, %42 ]
  %51 = add nsw i32 %.sink6.i, %28
  store i32 %.026.i.i3.i, ptr %0, align 8, !tbaa !33
  store i32 %51, ptr %4, align 4, !tbaa !35
  ret void
}